; Function Attrs: mustprogress uwtable
define void @cvAcc(ptr noundef %0, ptr noundef %1, ptr noundef %2) local_unnamed_addr #0 personality ptr @__gxx_personality_v0 {
  %4 = alloca %"class.cv::Mat", align 8
  %5 = alloca %"class.cv::Mat", align 8
  %6 = alloca %"class.cv::Mat", align 8
  %7 = alloca %"class.cv::Mat", align 8
  %8 = alloca %"class.cv::_InputArray", align 8
  %9 = alloca %"class.cv::_InputOutputArray", align 8
  %10 = alloca %"class.cv::_InputArray", align 8
  call void @_ZN2cv10cvarrToMatEPKvbbiPNS_10AutoBufferIdLm136EEE(ptr dead_on_unwind nonnull writable sret(%"class.cv::Mat") align 8 %4, ptr noundef %0, i1 noundef zeroext false, i1 noundef zeroext true, i32 noundef 0, ptr noundef null)
  invoke void @_ZN2cv10cvarrToMatEPKvbbiPNS_10AutoBufferIdLm136EEE(ptr dead_on_unwind nonnull writable sret(%"class.cv::Mat") align 8 %5, ptr noundef %1, i1 noundef zeroext false, i1 noundef zeroext true, i32 noundef 0, ptr noundef null)
          to label %11 unwind label %16

11:                                               ; preds = %3
  call void @_ZN2cv3MatC1Ev(ptr noundef nonnull align 8 dereferenceable(96) %6) #7
  %.not = icmp eq ptr %2, null
  br i1 %.not, label %22, label %12

12:                                               ; preds = %11
  invoke void @_ZN2cv10cvarrToMatEPKvbbiPNS_10AutoBufferIdLm136EEE(ptr dead_on_unwind nonnull writable sret(%"class.cv::Mat") align 8 %7, ptr noundef nonnull %2, i1 noundef zeroext false, i1 noundef zeroext true, i32 noundef 0, ptr noundef null)
          to label %13 unwind label %18

13:                                               ; preds = %12
  %14 = invoke noundef nonnull align 8 dereferenceable(96) ptr @_ZN2cv3MataSEOS0_(ptr noundef nonnull align 8 dereferenceable(96) %6, ptr noundef nonnull align 8 dereferenceable(96) %7)
          to label %15 unwind label %20

15:                                               ; preds = %13
  call void @_ZN2cv3MatD1Ev(ptr noundef nonnull align 8 dereferenceable(96) %7) #7
  br label %22

16:                                               ; preds = %3
  %17 = landingpad { ptr, i32 }
          cleanup
  br label %35

18:                                               ; preds = %12
  %19 = landingpad { ptr, i32 }
          cleanup
  br label %34

20:                                               ; preds = %13
  %21 = landingpad { ptr, i32 }
          cleanup
  call void @_ZN2cv3MatD1Ev(ptr noundef nonnull align 8 dereferenceable(96) %7) #7
  br label %34

22:                                               ; preds = %11, %15
  %23 = getelementptr inbounds i8, ptr %8, i64 16
  store i32 0, ptr %23, align 8
  %24 = getelementptr inbounds i8, ptr %8, i64 20
  store i32 0, ptr %24, align 4
  store i32 16842752, ptr %8, align 8
  %25 = getelementptr inbounds i8, ptr %8, i64 8
  store ptr %4, ptr %25, align 8
  %26 = getelementptr inbounds i8, ptr %9, i64 8
  %27 = getelementptr inbounds i8, ptr %9, i64 16
  store i64 0, ptr %27, align 8
  store i32 50397184, ptr %9, align 8
  store ptr %5, ptr %26, align 8
  %28 = getelementptr inbounds i8, ptr %10, i64 16
  store i32 0, ptr %28, align 8
  %29 = getelementptr inbounds i8, ptr %10, i64 20
  store i32 0, ptr %29, align 4
  store i32 16842752, ptr %10, align 8
  %30 = getelementptr inbounds i8, ptr %10, i64 8
  store ptr %6, ptr %30, align 8
  invoke void @_ZN2cv10accumulateERKNS_11_InputArrayERKNS_17_InputOutputArrayES2_(ptr noundef nonnull align 8 dereferenceable(24) %8, ptr noundef nonnull align 8 dereferenceable(24) %9, ptr noundef nonnull align 8 dereferenceable(24) %10)
          to label %31 unwind label %32

31:                                               ; preds = %22
  call void @_ZN2cv3MatD1Ev(ptr noundef nonnull align 8 dereferenceable(96) %6) #7
  call void @_ZN2cv3MatD1Ev(ptr noundef nonnull align 8 dereferenceable(96) %5) #7
  call void @_ZN2cv3MatD1Ev(ptr noundef nonnull align 8 dereferenceable(96) %4) #7
  ret void

32:                                               ; preds = %22
  %33 = landingpad { ptr, i32 }
          cleanup
  br label %34

34:                                               ; preds = %32, %20, %18
  %.pn.pn.pn = phi { ptr, i32 } [ %19, %18 ], [ %21, %20 ], [ %33, %32 ]
  call void @_ZN2cv3MatD1Ev(ptr noundef nonnull align 8 dereferenceable(96) %6) #7
  call void @_ZN2cv3MatD1Ev(ptr noundef nonnull align 8 dereferenceable(96) %5) #7
  br label %35

35:                                               ; preds = %34, %16
  %.pn.pn.pn.pn = phi { ptr, i32 } [ %.pn.pn.pn, %34 ], [ %17, %16 ]
  call void @_ZN2cv3MatD1Ev(ptr noundef nonnull align 8 dereferenceable(96) %4) #7
  resume { ptr, i32 } %.pn.pn.pn.pn
}